; Function Attrs: mustprogress nounwind uwtable
define dso_local void @_ZN5clang16CompilerInstance16setSourceManagerEPNS_13SourceManagerE(ptr noundef nonnull align 8 captures(none) dereferenceable(352) %0, ptr noundef %1) local_unnamed_addr #0 align 2 {
  %.not.i.i = icmp eq ptr %1, null
  br i1 %.not.i.i, label %_ZN4llvm18IntrusiveRefCntPtrIN5clang13SourceManagerEEC2EPS2_.exit, label %3

3:                                                ; preds = %2
  %4 = load i32, ptr %1, align 4
  %5 = add i32 %4, 1
  store i32 %5, ptr %1, align 4
  br label %_ZN4llvm18IntrusiveRefCntPtrIN5clang13SourceManagerEEC2EPS2_.exit

_ZN4llvm18IntrusiveRefCntPtrIN5clang13SourceManagerEEC2EPS2_.exit: ; preds = %2, %3
  %6 = getelementptr inbounds nuw i8, ptr %0, i64 64
  %7 = load ptr, ptr %6, align 8
  store ptr %1, ptr %6, align 8
  %.not.i.i2 = icmp eq ptr %7, null
  br i1 %.not.i.i2, label %_ZN4llvm18IntrusiveRefCntPtrIN5clang13SourceManagerEED2Ev.exit, label %8

8:                                                ; preds = %_ZN4llvm18IntrusiveRefCntPtrIN5clang13SourceManagerEEC2EPS2_.exit
  %9 = load i32, ptr %7, align 4
  %10 = add i32 %9, -1
  store i32 %10, ptr %7, align 4
  %.not.i.i.i.i = icmp eq i32 %10, 0
  br i1 %.not.i.i.i.i, label %11, label %_ZN4llvm18IntrusiveRefCntPtrIN5clang13SourceManagerEED2Ev.exit

11:                                               ; preds = %8
  tail call void @_ZN5clang13SourceManagerD1Ev(ptr noundef nonnull align 8 dereferenceable(696) %7) #24
  tail call void @_ZdlPvm(ptr noundef nonnull align 4 dereferenceable(4) %7, i64 noundef 696) #25
  br label %_ZN4llvm18IntrusiveRefCntPtrIN5clang13SourceManagerEED2Ev.exit

_ZN4llvm18IntrusiveRefCntPtrIN5clang13SourceManagerEED2Ev.exit: ; preds = %_ZN4llvm18IntrusiveRefCntPtrIN5clang13SourceManagerEEC2EPS2_.exit, %8, %11
  ret void
}